; Function Attrs: mustprogress uwtable
define dso_local void @_ZNK5cmELF17GetDynamicEntriesEv(ptr dead_on_unwind noalias writable sret(%"class.std::vector") align 8 %0, ptr nocapture noundef nonnull readonly align 8 dereferenceable(40) %1) local_unnamed_addr #0 align 2 {
  %3 = load ptr, ptr %1, align 8
  %.not.i = icmp eq ptr %3, null
  br i1 %.not.i, label %_ZNK5cmELF5ValidEv.exit.thread, label %_ZNK5cmELF5ValidEv.exit

_ZNK5cmELF5ValidEv.exit:                          ; preds = %2
  %4 = getelementptr inbounds i8, ptr %3, i64 28
  %5 = load i32, ptr %4, align 4
  %.not = icmp eq i32 %5, 0
  br i1 %.not, label %_ZNK5cmELF5ValidEv.exit.thread, label %6

6:                                                ; preds = %_ZNK5cmELF5ValidEv.exit
  %7 = load ptr, ptr %3, align 8
  %8 = getelementptr inbounds i8, ptr %7, i64 32
  %9 = load ptr, ptr %8, align 8
  tail call void %9(ptr dead_on_unwind writable sret(%"class.std::vector") align 8 %0, ptr noundef nonnull align 8 dereferenceable(88) %3)
  br label %10

_ZNK5cmELF5ValidEv.exit.thread:                   ; preds = %2, %_ZNK5cmELF5ValidEv.exit
  tail call void @llvm.memset.p0.i64(ptr noundef nonnull align 8 dereferenceable(24) %0, i8 0, i64 24, i1 false)
  br label %10

10:                                               ; preds = %_ZNK5cmELF5ValidEv.exit.thread, %6
  ret void
}